; Function Attrs: mustprogress nounwind uwtable
define noundef nonnull align 8 dereferenceable(216) ptr @_ZN5boost4urls8url_base19normalize_authorityEv(ptr noundef nonnull returned align 8 dereferenceable(216) %0) local_unnamed_addr #6 align 2 {
  %2 = alloca %"struct.boost::urls::url_base::op_t", align 8
  call void @llvm.lifetime.start.p0(i64 32, ptr nonnull %2) #30
  call void @_ZN5boost4urls8url_base4op_tC1ERS1_PNS_4core17basic_string_viewIcEES7_(ptr noundef nonnull align 8 dereferenceable(32) %2, ptr noundef nonnull align 8 dereferenceable(216) %0, ptr noundef null, ptr noundef null) #30
  %3 = getelementptr inbounds i8, ptr %0, i64 192
  %4 = load ptr, ptr %3, align 8, !tbaa !24
  %5 = getelementptr inbounds nuw i8, ptr %4, i64 164
  %6 = load i32, ptr %5, align 4, !tbaa !203
  %7 = icmp eq i32 %6, 1
  br i1 %7, label %8, label %9

8:                                                ; preds = %1
  call void @_ZN5boost4urls8url_base21normalize_octets_implINS0_7grammar9lut_charsEEEviRKT_RNS1_4op_tE(ptr noundef nonnull align 8 dereferenceable(216) %0, i32 noundef 2, ptr noundef nonnull align 8 dereferenceable(32) @_ZN5boost4urls6detailL14reg_name_charsE, ptr noundef nonnull align 8 dereferenceable(32) %2) #30
  br label %9

9:                                                ; preds = %8, %1
  %10 = getelementptr inbounds nuw i8, ptr %0, i64 200
  %11 = load ptr, ptr %10, align 8, !tbaa !16
  %12 = getelementptr inbounds i8, ptr %0, i64 16
  %13 = call noundef i64 @_ZNK5boost4urls6detail8url_impl6offsetEi(ptr noundef nonnull align 8 dereferenceable(171) %12, i32 noundef 2) #30
  %14 = getelementptr inbounds nuw i8, ptr %11, i64 %13
  %15 = load ptr, ptr %10, align 8, !tbaa !16
  %16 = call noundef i64 @_ZNK5boost4urls6detail8url_impl6offsetEi(ptr noundef nonnull align 8 dereferenceable(171) %12, i32 noundef 3) #30
  %17 = getelementptr inbounds nuw i8, ptr %15, i64 %16
  %18 = icmp ult ptr %14, %17
  br i1 %18, label %.lr.ph.i, label %_ZN5boost4urls8url_base21decoded_to_lower_implEi.exit

.lr.ph.i:                                         ; preds = %9, %.backedge.i
  %.09.i = phi ptr [ %24, %.backedge.i ], [ %14, %9 ]
  %19 = load i8, ptr %.09.i, align 1, !tbaa !25
  %.not.i = icmp eq i8 %19, 37
  br i1 %.not.i, label %.backedge.i, label %20

20:                                               ; preds = %.lr.ph.i
  %21 = add i8 %19, -65
  %or.cond.i.i.i = icmp ult i8 %21, 26
  %22 = add nuw nsw i8 %19, 32
  %23 = select i1 %or.cond.i.i.i, i8 %22, i8 %19
  store i8 %23, ptr %.09.i, align 1, !tbaa !25
  br label %.backedge.i

.backedge.i:                                      ; preds = %20, %.lr.ph.i
  %.sink.i = phi i64 [ 1, %20 ], [ 3, %.lr.ph.i ]
  %24 = getelementptr inbounds i8, ptr %.09.i, i64 %.sink.i
  %25 = icmp ult ptr %24, %17
  br i1 %25, label %.lr.ph.i, label %_ZN5boost4urls8url_base21decoded_to_lower_implEi.exit, !llvm.loop !204

_ZN5boost4urls8url_base21decoded_to_lower_implEi.exit: ; preds = %.backedge.i, %9
  call void @_ZN5boost4urls8url_base21normalize_octets_implINS0_7grammar9lut_charsEEEviRKT_RNS1_4op_tE(ptr noundef nonnull align 8 dereferenceable(216) %0, i32 noundef 1, ptr noundef nonnull align 8 dereferenceable(32) @_ZN5boost4urls6detailL14password_charsE, ptr noundef nonnull align 8 dereferenceable(32) %2) #30
  call void @_ZN5boost4urls8url_base21normalize_octets_implINS0_7grammar9lut_charsEEEviRKT_RNS1_4op_tE(ptr noundef nonnull align 8 dereferenceable(216) %0, i32 noundef 0, ptr noundef nonnull align 8 dereferenceable(32) @_ZN5boost4urls6detailL10user_charsE, ptr noundef nonnull align 8 dereferenceable(32) %2) #30
  call void @_ZN5boost4urls8url_base4op_tD1Ev(ptr noundef nonnull align 8 dereferenceable(32) %2) #30
  call void @llvm.lifetime.end.p0(i64 32, ptr nonnull %2) #30
  ret ptr %0
}